Certificate:
    Data:
        Version: 3 (0x2)
        Serial Number: 2 (0x2)
    Signature Algorithm: sha1WithRSAEncryption
        Issuer: C=AU, ST=Some-State, O=Internet Widgits Pty Ltd, CN=CA
        Validity
            Not Before: Feb 22 12:26:59 2023 GMT
            Not After : Feb 22 12:26:59 2024 GMT
        Subject: C=AU, ST=Some-State, O=Internet Widgits Pty Ltd, CN=user2
        Subject Public Key Info:
            Public Key Algorithm: rsaEncryption
                Public-Key: (2048 bit)
                Modulus:
                    00:c4:ca:2a:f2:10:49:50:3f:e9:88:d7:05:a7:2a:
                    66:51:97:88:52:8e:7b:f8:47:c2:be:4e:ae:b8:2f:
                    aa:1d:c9:c3:ed:17:1f:5c:7a:26:ce:98:79:87:80:
                    16:6c:24:57:71:14:f4:8c:94:e4:31:ba:88:84:4f:
                    90:ca:2f:49:a2:98:73:b4:86:b1:da:32:3b:42:85:
                    af:00:ba:d9:b2:f8:c4:d4:31:6c:12:45:b6:ef:6a:
                    a2:45:ea:3e:b0:71:8a:d0:14:c7:08:bb:c8:61:b8:
                    b2:da:a5:61:19:a0:c1:aa:73:b6:99:63:cb:b5:49:
                    e6:a2:ec:80:0d:6c:2b:01:88:a4:23:39:4e:e0:a2:
                    07:4b:ca:1d:08:53:31:f2:9e:80:e4:42:e9:34:59:
                    ba:21:9c:12:d6:c4:b4:1d:0c:ce:5f:49:50:8f:34:
                    54:dd:96:f1:6f:2f:eb:74:7b:ef:96:95:93:97:3d:
                    b1:99:74:12:8a:95:d6:b5:01:9c:97:ce:e2:60:3b:
                    e6:31:96:95:e2:20:80:dc:2a:63:f0:bc:b1:15:e7:
                    3e:25:cd:60:89:7a:42:5e:a0:76:c3:28:b2:6b:dd:
                    29:28:2c:de:c9:98:10:f8:fe:70:8e:96:e8:ee:05:
                    70:9f:d3:e3:a4:ae:a1:5e:7a:38:1f:46:ef:71:d3:
                    35:19
                Exponent: 65537 (0x10001)
        X509v3 extensions:
            X509v3 Basic Constraints: 
                CA:FALSE
            Netscape Comment: 
                OpenSSL Generated Certificate
            X509v3 Subject Key Identifier: 
                0D:D3:66:97:CD:A9:87:01:61:2A:52:84:7C:D5:58:62:DA:BD:45:6E
            X509v3 Authority Key Identifier: 
                keyid:16:6D:9B:A9:4E:B5:2D:8D:02:C8:4A:94:94:DA:82:0A:75:E2:45:D9

    Signature Algorithm: sha1WithRSAEncryption
         98:13:d0:11:40:16:bb:0a:da:99:bc:f1:ce:51:65:8a:57:ad:
         23:5f:70:75:6f:22:e4:d9:97:1e:5c:96:34:9f:06:ed:7e:8d:
         65:67:40:87:5e:5b:56:4d:c9:87:d1:ba:53:69:1d:4a:ed:e3:
         0a:e2:f4:b9:74:ab:e9:27:81:bc:7d:eb:7e:fe:38:80:bc:3a:
         15:8b:b2:4b:10:ab:e4:20:51:19:27:53:88:5c:f0:9f:8e:31:
         62:3c:ce:80:02:84:35:0d:1c:7d:aa:8a:b9:f3:d4:cf:f3:da:
         90:39:47:52:c2:87:64:c5:fa:2e:8f:24:38:c0:cf:a9:5c:be:
         54:79:a7:0b:be:d3:21:89:d7:4e:c9:76:c6:70:77:54:cd:d6:
         5e:74:ab:b0:4f:5f:9a:18:2c:77:22:2f:fb:ea:a8:c3:65:00:
         f8:91:8c:14:b3:01:5b:ab:d1:02:87:c4:b5:61:14:49:ad:e1:
         e7:2a:19:fd:9a:27:fb:c8:9e:7e:2c:ee:56:17:e6:83:43:b7:
         03:a7:e2:88:c3:38:9f:9c:62:25:00:cb:b6:cc:e5:47:07:9e:
         3a:4c:65:fa:6d:42:40:29:6a:f0:44:27:72:38:f7:5b:6b:4c:
         d2:20:dc:64:8b:41:6f:7e:f0:b3:47:68:69:b4:3b:cd:ed:f7:
         ab:8c:85:89
-----BEGIN CERTIFICATE-----
MIIDnTCCAoWgAwIBAgIBAjANBgkqhkiG9w0BAQUFADBSMQswCQYDVQQGEwJBVTET
MBEGA1UECAwKU29tZS1TdGF0ZTEhMB8GA1UECgwYSW50ZXJuZXQgV2lkZ2l0cyBQ
dHkgTHRkMQswCQYDVQQDDAJDQTAeFw0yMzAyMjIxMjI2NTlaFw0yNDAyMjIxMjI2
NTlaMFUxCzAJBgNVBAYTAkFVMRMwEQYDVQQIDApTb21lLVN0YXRlMSEwHwYDVQQK
DBhJbnRlcm5ldCBXaWRnaXRzIFB0eSBMdGQxDjAMBgNVBAMMBXVzZXIyMIIBIjAN
BgkqhkiG9w0BAQEFAAOCAQ8AMIIBCgKCAQEAxMoq8hBJUD/piNcFpypmUZeIUo57
+EfCvk6uuC+qHcnD7RcfXHomzph5h4AWbCRXcRT0jJTkMbqIhE+Qyi9JophztIax
2jI7QoWvALrZsvjE1DFsEkW272qiReo+sHGK0BTHCLvIYbiy2qVhGaDBqnO2mWPL
tUnmouyADWwrAYikIzlO4KIHS8odCFMx8p6A5ELpNFm6IZwS1sS0HQzOX0lQjzRU
3Zbxby/rdHvvlpWTlz2xmXQSipXWtQGcl87iYDvmMZaV4iCA3Cpj8LyxFec+Jc1g
iXpCXqB2wyiya90pKCzeyZgQ+P5wjpbo7gVwn9PjpK6hXno4H0bvcdM1GQIDAQAB
o3sweTAJBgNVHRMEAjAAMCwGCWCGSAGG+EIBDQQfFh1PcGVuU1NMIEdlbmVyYXRl
ZCBDZXJ0aWZpY2F0ZTAdBgNVHQ4EFgQUDdNml82phwFhKlKEfNVYYtq9RW4wHwYD
VR0jBBgwFoAUFm2bqU61LY0CyEqUlNqCCnXiRdkwDQYJKoZIhvcNAQEFBQADggEB
AJgT0BFAFrsK2pm88c5RZYpXrSNfcHVvIuTZlx5cljSfBu1+jWVnQIdeW1ZNyYfR
ulNpHUrt4wri9Ll0q+kngbx9637+OIC8OhWLsksQq+QgURknU4hc8J+OMWI8zoAC
hDUNHH2qirnz1M/z2pA5R1LCh2TF+i6PJDjAz6lcvlR5pwu+0yGJ107JdsZwd1TN
1l50q7BPX5oYLHciL/vqqMNlAPiRjBSzAVur0QKHxLVhFEmt4ecqGf2aJ/vInn4s
7lYX5oNDtwOn4ojDOJ+cYiUAy7bM5UcHnjpMZfptQkApavBEJ3I491trTNIg3GSL
QW9+8LNHaGm0O83t96uMhYk=
-----END CERTIFICATE-----
