Certificate:
    Data:
        Version: 3 (0x2)
        Serial Number: 1 (0x1)
    Signature Algorithm: sha1WithRSAEncryption
        Issuer: C=AU, ST=Some-State, O=Internet Widgits Pty Ltd, CN=CA
        Validity
            Not Before: Feb 22 12:19:26 2023 GMT
            Not After : Feb 22 12:19:26 2024 GMT
        Subject: C=AU, ST=Some-State, O=Internet Widgits Pty Ltd, CN=user1
        Subject Public Key Info:
            Public Key Algorithm: rsaEncryption
                Public-Key: (2048 bit)
                Modulus:
                    00:ad:6c:c4:be:56:06:c6:94:fd:ba:bc:eb:cd:0b:
                    ad:46:71:2c:da:05:b6:2f:ae:67:10:4b:4b:e8:b8:
                    af:66:0f:4f:ae:ea:ac:b0:57:86:fe:e5:10:d0:c7:
                    df:f1:bd:27:a6:ff:8c:4b:9b:54:c1:77:ba:20:d3:
                    2f:7a:46:ed:df:e9:12:69:06:d5:70:8f:83:17:ea:
                    77:11:62:18:3f:8d:dd:fd:b5:dd:72:2d:e3:53:59:
                    27:12:d9:7e:23:c2:d2:9d:fc:ad:97:2d:4c:84:63:
                    97:05:fe:a9:eb:d1:ba:c7:39:c0:13:ba:ad:54:c4:
                    a9:68:76:8e:67:f1:59:ee:15:ac:63:d8:21:96:f9:
                    0e:e3:fe:3d:bf:84:50:38:4d:c4:a5:55:76:9c:d5:
                    ab:b8:f7:0c:0e:73:9e:a9:b1:75:ee:9f:db:4d:71:
                    17:e5:8a:1c:da:96:35:2f:73:fe:b9:73:18:38:e4:
                    d7:78:f7:a3:13:ac:03:2b:f5:a8:53:cc:4f:7f:3c:
                    72:d2:44:28:ff:4d:40:20:7f:d1:3c:a3:2d:63:37:
                    20:d9:d2:15:70:36:42:68:06:77:e9:f8:c5:1a:0d:
                    46:a4:01:85:e8:83:8f:dd:32:cc:5a:03:94:97:42:
                    93:b3:a6:dc:a4:ec:71:7b:ed:90:8d:6a:63:a4:ff:
                    bc:81
                Exponent: 65537 (0x10001)
        X509v3 extensions:
            X509v3 Basic Constraints: 
                CA:FALSE
            Netscape Comment: 
                OpenSSL Generated Certificate
            X509v3 Subject Key Identifier: 
                4A:B3:2B:E5:00:28:A5:BC:DC:6F:0C:E6:81:71:C7:0C:FD:D0:06:6B
            X509v3 Authority Key Identifier: 
                keyid:16:6D:9B:A9:4E:B5:2D:8D:02:C8:4A:94:94:DA:82:0A:75:E2:45:D9

    Signature Algorithm: sha1WithRSAEncryption
         7a:f2:b7:e7:06:96:60:50:b6:e4:db:80:f4:9d:ef:8f:68:5b:
         49:b3:8f:05:37:05:4c:22:96:36:ef:ac:68:ae:7c:15:03:a2:
         c8:93:4f:29:50:57:6d:3b:19:4c:01:98:bd:38:73:6f:63:03:
         d8:f9:d7:3a:26:73:da:54:3b:95:01:ef:27:07:d6:87:cc:49:
         72:05:99:29:d0:66:e3:b4:3a:a1:b0:87:ed:12:a4:f6:0a:d2:
         ad:77:0d:29:be:c7:c4:6c:6f:5a:30:ca:9f:a1:18:d1:1a:b1:
         20:5b:a4:4f:52:8d:ab:f0:c2:79:9d:b3:82:0d:86:77:85:42:
         af:11:51:00:48:aa:84:04:5d:bb:2a:60:0d:e9:d0:7b:38:69:
         e4:04:3e:71:a9:fb:5c:3f:a7:cf:36:97:db:c1:ea:b8:83:4e:
         01:2a:b6:9b:e2:96:84:72:71:f9:03:b8:ff:01:10:cd:f1:d9:
         ee:c5:1b:9a:6d:fd:de:c5:19:09:eb:34:1f:35:e9:2b:71:15:
         c3:d3:65:fd:21:68:f9:2d:2d:7c:c0:0e:ca:2f:44:4c:01:c2:
         0f:d8:90:fe:d2:ff:b8:ef:36:84:71:66:91:c0:95:6f:7a:11:
         e7:ca:9e:48:46:fe:d8:7d:ee:e5:b8:4a:89:17:51:a3:44:af:
         16:f9:77:4a
-----BEGIN CERTIFICATE-----
MIIDnTCCAoWgAwIBAgIBATANBgkqhkiG9w0BAQUFADBSMQswCQYDVQQGEwJBVTET
MBEGA1UECAwKU29tZS1TdGF0ZTEhMB8GA1UECgwYSW50ZXJuZXQgV2lkZ2l0cyBQ
dHkgTHRkMQswCQYDVQQDDAJDQTAeFw0yMzAyMjIxMjE5MjZaFw0yNDAyMjIxMjE5
MjZaMFUxCzAJBgNVBAYTAkFVMRMwEQYDVQQIDApTb21lLVN0YXRlMSEwHwYDVQQK
DBhJbnRlcm5ldCBXaWRnaXRzIFB0eSBMdGQxDjAMBgNVBAMMBXVzZXIxMIIBIjAN
BgkqhkiG9w0BAQEFAAOCAQ8AMIIBCgKCAQEArWzEvlYGxpT9urzrzQutRnEs2gW2
L65nEEtL6LivZg9PruqssFeG/uUQ0Mff8b0npv+MS5tUwXe6INMvekbt3+kSaQbV
cI+DF+p3EWIYP43d/bXdci3jU1knEtl+I8LSnfytly1MhGOXBf6p69G6xznAE7qt
VMSpaHaOZ/FZ7hWsY9ghlvkO4/49v4RQOE3EpVV2nNWruPcMDnOeqbF17p/bTXEX
5Yoc2pY1L3P+uXMYOOTXePejE6wDK/WoU8xPfzxy0kQo/01AIH/RPKMtYzcg2dIV
cDZCaAZ36fjFGg1GpAGF6IOP3TLMWgOUl0KTs6bcpOxxe+2QjWpjpP+8gQIDAQAB
o3sweTAJBgNVHRMEAjAAMCwGCWCGSAGG+EIBDQQfFh1PcGVuU1NMIEdlbmVyYXRl
ZCBDZXJ0aWZpY2F0ZTAdBgNVHQ4EFgQUSrMr5QAopbzcbwzmgXHHDP3QBmswHwYD
VR0jBBgwFoAUFm2bqU61LY0CyEqUlNqCCnXiRdkwDQYJKoZIhvcNAQEFBQADggEB
AHryt+cGlmBQtuTbgPSd749oW0mzjwU3BUwiljbvrGiufBUDosiTTylQV207GUwB
mL04c29jA9j51zomc9pUO5UB7ycH1ofMSXIFmSnQZuO0OqGwh+0SpPYK0q13DSm+
x8Rsb1owyp+hGNEasSBbpE9Sjavwwnmds4INhneFQq8RUQBIqoQEXbsqYA3p0Hs4
aeQEPnGp+1w/p882l9vB6riDTgEqtpviloRycfkDuP8BEM3x2e7FG5pt/d7FGQnr
NB816StxFcPTZf0haPktLXzADsovREwBwg/YkP7S/7jvNoRxZpHAlW96EefKnkhG
/th97uW4SokXUaNErxb5d0o=
-----END CERTIFICATE-----
